target datalayout = "e-m:e-p270:32:32-p271:32:32-p272:64:64-i64:64-i128:128-f80:128-n8:16:32:64-S128"
target triple = "x86_64-pc-linux-gnu"

%struct.SDL_HIDAPI_Device = type { ptr, ptr, ptr, ptr, i16, i16, i16, ptr, %struct.SDL_GUID, i32, i32, i32, i32, i16, i16, i8, i32, i32, i32, ptr, ptr, ptr, ptr, %struct.SDL_AtomicInt, i32, ptr, i8, i8, i8, ptr, i32, ptr, ptr }
%struct.SDL_GUID = type { [16 x i8] }
%struct.SDL_AtomicInt = type { i32 }
%struct.SDL_DriverPS5_Context = type { ptr, ptr, i8, i8, i8, i8, i8, i8, i8, i8, i32, i8, i8, i8, i8, i8, i8, i8, [6 x %struct.IMUCalibrationData], i16, i64, i32, i8, i8, i8, i8, i8, i8, i8, i32, i64, i32, %union.anon }
%struct.IMUCalibrationData = type { i16, float }
%union.anon = type { [64 x i8] }

; Function Attrs: nounwind uwtable
define internal i32 @HIDAPI_DriverPS5_GetJoystickCapabilities(ptr noundef %0, ptr noundef %1) #0 {
  %3 = alloca ptr, align 8
  %4 = alloca ptr, align 8
  %5 = alloca ptr, align 8
  %6 = alloca i32, align 4
  store ptr %0, ptr %3, align 8
  store ptr %1, ptr %4, align 8
  call void @llvm.lifetime.start.p0(i64 8, ptr %5) #6
  %7 = load ptr, ptr %3, align 8
  %8 = getelementptr inbounds nuw %struct.SDL_HIDAPI_Device, ptr %7, i32 0, i32 20
  %9 = load ptr, ptr %8, align 8
  store ptr %9, ptr %5, align 8
  call void @llvm.lifetime.start.p0(i64 4, ptr %6) #6
  store i32 0, ptr %6, align 4
  %10 = load ptr, ptr %5, align 8
  %11 = getelementptr inbounds nuw %struct.SDL_DriverPS5_Context, ptr %10, i32 0, i32 13
  %12 = load i8, ptr %11, align 2, !range !5, !noundef !6
  %13 = trunc i8 %12 to i1
  br i1 %13, label %14, label %39

14:                                               ; preds = %2
  %15 = load ptr, ptr %5, align 8
  %16 = getelementptr inbounds nuw %struct.SDL_DriverPS5_Context, ptr %15, i32 0, i32 5
  %17 = load i8, ptr %16, align 1, !range !5, !noundef !6
  %18 = trunc i8 %17 to i1
  br i1 %18, label %19, label %22

19:                                               ; preds = %14
  %20 = load i32, ptr %6, align 4
  %21 = or i32 %20, 2
  store i32 %21, ptr %6, align 4
  br label %22

22:                                               ; preds = %19, %14
  %23 = load ptr, ptr %5, align 8
  %24 = getelementptr inbounds nuw %struct.SDL_DriverPS5_Context, ptr %23, i32 0, i32 7
  %25 = load i8, ptr %24, align 1, !range !5, !noundef !6
  %26 = trunc i8 %25 to i1
  br i1 %26, label %27, label %30

27:                                               ; preds = %22
  %28 = load i32, ptr %6, align 4
  %29 = or i32 %28, 4
  store i32 %29, ptr %6, align 4
  br label %30

30:                                               ; preds = %27, %22
  %31 = load ptr, ptr %5, align 8
  %32 = getelementptr inbounds nuw %struct.SDL_DriverPS5_Context, ptr %31, i32 0, i32 6
  %33 = load i8, ptr %32, align 4, !range !5, !noundef !6
  %34 = trunc i8 %33 to i1
  br i1 %34, label %35, label %38

35:                                               ; preds = %30
  %36 = load i32, ptr %6, align 4
  %37 = or i32 %36, 16
  store i32 %37, ptr %6, align 4
  br label %38

38:                                               ; preds = %35, %30
  br label %39

39:                                               ; preds = %38, %2
  %40 = load i32, ptr %6, align 4
  call void @llvm.lifetime.end.p0(i64 4, ptr %6) #6
  call void @llvm.lifetime.end.p0(i64 8, ptr %5) #6
  ret i32 %40
}